; Function Attrs: mustprogress uwtable
define void @_ZN10OpenSubdiv6v3_6_03Vtr8internal10Refinement29initializeSparseSelectionTagsEv(ptr noundef nonnull align 8 dereferenceable(504) %0) local_unnamed_addr #7 align 2 personality ptr @__gxx_personality_v0 {
  %2 = getelementptr inbounds nuw i8, ptr %0, i64 408
  %3 = getelementptr inbounds nuw i8, ptr %0, i64 8
  %4 = load ptr, ptr %3, align 8
  %5 = load i32, ptr %4, align 8
  %6 = sext i32 %5 to i64
  %7 = getelementptr inbounds i8, ptr %0, i64 416
  %8 = load ptr, ptr %7, align 8
  %9 = load ptr, ptr %2, align 8
  %10 = ptrtoint ptr %8 to i64
  %11 = ptrtoint ptr %9 to i64
  %12 = sub i64 %10, %11
  %13 = icmp ult i64 %12, %6
  br i1 %13, label %14, label %16

14:                                               ; preds = %1
  %15 = sub nuw i64 %6, %12
  tail call void @_ZNSt6vectorIN10OpenSubdiv6v3_6_03Vtr8internal10Refinement9SparseTagESaIS5_EE17_M_default_appendEm(ptr noundef nonnull align 8 dereferenceable(24) %2, i64 noundef %15)
  %.pre = load ptr, ptr %3, align 8
  br label %_ZNSt6vectorIN10OpenSubdiv6v3_6_03Vtr8internal10Refinement9SparseTagESaIS5_EE6resizeEm.exit

16:                                               ; preds = %1
  %17 = icmp ugt i64 %12, %6
  br i1 %17, label %18, label %_ZNSt6vectorIN10OpenSubdiv6v3_6_03Vtr8internal10Refinement9SparseTagESaIS5_EE6resizeEm.exit

18:                                               ; preds = %16
  %19 = getelementptr inbounds %"struct.OpenSubdiv::v3_6_0::Vtr::internal::Refinement::SparseTag", ptr %9, i64 %6
  %.not.i.i = icmp eq ptr %8, %19
  br i1 %.not.i.i, label %_ZNSt6vectorIN10OpenSubdiv6v3_6_03Vtr8internal10Refinement9SparseTagESaIS5_EE6resizeEm.exit, label %20

20:                                               ; preds = %18
  store ptr %19, ptr %7, align 8
  br label %_ZNSt6vectorIN10OpenSubdiv6v3_6_03Vtr8internal10Refinement9SparseTagESaIS5_EE6resizeEm.exit

_ZNSt6vectorIN10OpenSubdiv6v3_6_03Vtr8internal10Refinement9SparseTagESaIS5_EE6resizeEm.exit: ; preds = %14, %16, %18, %20
  %21 = phi ptr [ %.pre, %14 ], [ %4, %16 ], [ %4, %18 ], [ %4, %20 ]
  %22 = getelementptr inbounds nuw i8, ptr %0, i64 432
  %23 = getelementptr inbounds nuw i8, ptr %21, i64 4
  %24 = load i32, ptr %23, align 4
  %25 = sext i32 %24 to i64
  %26 = getelementptr inbounds i8, ptr %0, i64 440
  %27 = load ptr, ptr %26, align 8
  %28 = load ptr, ptr %22, align 8
  %29 = ptrtoint ptr %27 to i64
  %30 = ptrtoint ptr %28 to i64
  %31 = sub i64 %29, %30
  %32 = icmp ult i64 %31, %25
  br i1 %32, label %33, label %35

33:                                               ; preds = %_ZNSt6vectorIN10OpenSubdiv6v3_6_03Vtr8internal10Refinement9SparseTagESaIS5_EE6resizeEm.exit
  %34 = sub nuw i64 %25, %31
  tail call void @_ZNSt6vectorIN10OpenSubdiv6v3_6_03Vtr8internal10Refinement9SparseTagESaIS5_EE17_M_default_appendEm(ptr noundef nonnull align 8 dereferenceable(24) %22, i64 noundef %34)
  %.pre5 = load ptr, ptr %3, align 8
  br label %_ZNSt6vectorIN10OpenSubdiv6v3_6_03Vtr8internal10Refinement9SparseTagESaIS5_EE6resizeEm.exit2

35:                                               ; preds = %_ZNSt6vectorIN10OpenSubdiv6v3_6_03Vtr8internal10Refinement9SparseTagESaIS5_EE6resizeEm.exit
  %36 = icmp ugt i64 %31, %25
  br i1 %36, label %37, label %_ZNSt6vectorIN10OpenSubdiv6v3_6_03Vtr8internal10Refinement9SparseTagESaIS5_EE6resizeEm.exit2

37:                                               ; preds = %35
  %38 = getelementptr inbounds %"struct.OpenSubdiv::v3_6_0::Vtr::internal::Refinement::SparseTag", ptr %28, i64 %25
  %.not.i.i1 = icmp eq ptr %27, %38
  br i1 %.not.i.i1, label %_ZNSt6vectorIN10OpenSubdiv6v3_6_03Vtr8internal10Refinement9SparseTagESaIS5_EE6resizeEm.exit2, label %39

39:                                               ; preds = %37
  store ptr %38, ptr %26, align 8
  br label %_ZNSt6vectorIN10OpenSubdiv6v3_6_03Vtr8internal10Refinement9SparseTagESaIS5_EE6resizeEm.exit2

_ZNSt6vectorIN10OpenSubdiv6v3_6_03Vtr8internal10Refinement9SparseTagESaIS5_EE6resizeEm.exit2: ; preds = %33, %35, %37, %39
  %40 = phi ptr [ %.pre5, %33 ], [ %21, %35 ], [ %21, %37 ], [ %21, %39 ]
  %41 = getelementptr inbounds nuw i8, ptr %0, i64 456
  %42 = getelementptr inbounds nuw i8, ptr %40, i64 8
  %43 = load i32, ptr %42, align 8
  %44 = sext i32 %43 to i64
  %45 = getelementptr inbounds i8, ptr %0, i64 464
  %46 = load ptr, ptr %45, align 8
  %47 = load ptr, ptr %41, align 8
  %48 = ptrtoint ptr %46 to i64
  %49 = ptrtoint ptr %47 to i64
  %50 = sub i64 %48, %49
  %51 = icmp ult i64 %50, %44
  br i1 %51, label %52, label %54

52:                                               ; preds = %_ZNSt6vectorIN10OpenSubdiv6v3_6_03Vtr8internal10Refinement9SparseTagESaIS5_EE6resizeEm.exit2
  %53 = sub nuw i64 %44, %50
  tail call void @_ZNSt6vectorIN10OpenSubdiv6v3_6_03Vtr8internal10Refinement9SparseTagESaIS5_EE17_M_default_appendEm(ptr noundef nonnull align 8 dereferenceable(24) %41, i64 noundef %53)
  br label %_ZNSt6vectorIN10OpenSubdiv6v3_6_03Vtr8internal10Refinement9SparseTagESaIS5_EE6resizeEm.exit4

54:                                               ; preds = %_ZNSt6vectorIN10OpenSubdiv6v3_6_03Vtr8internal10Refinement9SparseTagESaIS5_EE6resizeEm.exit2
  %55 = icmp ugt i64 %50, %44
  br i1 %55, label %56, label %_ZNSt6vectorIN10OpenSubdiv6v3_6_03Vtr8internal10Refinement9SparseTagESaIS5_EE6resizeEm.exit4

56:                                               ; preds = %54
  %57 = getelementptr inbounds %"struct.OpenSubdiv::v3_6_0::Vtr::internal::Refinement::SparseTag", ptr %47, i64 %44
  %.not.i.i3 = icmp eq ptr %46, %57
  br i1 %.not.i.i3, label %_ZNSt6vectorIN10OpenSubdiv6v3_6_03Vtr8internal10Refinement9SparseTagESaIS5_EE6resizeEm.exit4, label %58

58:                                               ; preds = %56
  store ptr %57, ptr %45, align 8
  br label %_ZNSt6vectorIN10OpenSubdiv6v3_6_03Vtr8internal10Refinement9SparseTagESaIS5_EE6resizeEm.exit4

_ZNSt6vectorIN10OpenSubdiv6v3_6_03Vtr8internal10Refinement9SparseTagESaIS5_EE6resizeEm.exit4: ; preds = %52, %54, %56, %58
  ret void
}